target datalayout = "e-m:e-p270:32:32-p271:32:32-p272:64:64-i64:64-i128:128-f80:128-n8:16:32:64-S128"
target triple = "x86_64-pc-linux-gnu"

%struct.srun_user_msg = type { i32, ptr }

@.str.10 = private unnamed_addr constant [3 x i8] c"%s\00", align 1

; Function Attrs: nounwind uwtable
define internal void @_user_msg_handler(ptr noundef %0) #0 {
  %2 = alloca ptr, align 8
  store ptr %0, ptr %2, align 8
  br label %3

3:                                                ; preds = %1
  br label %4

4:                                                ; preds = %3
  %5 = call i32 @get_log_level()
  %6 = icmp sge i32 %5, 3
  br i1 %6, label %7, label %11

7:                                                ; preds = %4
  %8 = load ptr, ptr %2, align 8
  %9 = getelementptr inbounds nuw %struct.srun_user_msg, ptr %8, i32 0, i32 1
  %10 = load ptr, ptr %9, align 8
  call void (i32, ptr, ...) @log_var(i32 noundef 3, ptr noundef @.str.10, ptr noundef %10)
  br label %11

11:                                               ; preds = %7, %4
  br label %12

12:                                               ; preds = %11
  br label %13

13:                                               ; preds = %12
  ret void
}