; Function Attrs: nounwind uwtable
define internal void @_user_msg_handler(ptr noundef readonly captures(none) %0) #0 {
  %2 = tail call i32 @get_log_level() #13
  %3 = icmp sgt i32 %2, 2
  br i1 %3, label %4, label %7

4:                                                ; preds = %1
  %5 = getelementptr inbounds nuw i8, ptr %0, i64 8
  %6 = load ptr, ptr %5, align 8
  tail call void (i32, ptr, ...) @log_var(i32 noundef 3, ptr noundef nonnull @.str.10, ptr noundef %6) #13
  br label %7

7:                                                ; preds = %4, %1
  ret void
}